; Function Attrs: nounwind uwtable
define nonnull ptr @l_Lake_Toml_isControlChar___boxed(ptr noundef %0) #1 {
  %2 = ptrtoint ptr %0 to i64
  %3 = lshr i64 %2, 1
  %4 = trunc i64 %3 to i32
  %5 = and i64 %2, 1
  %.not = icmp eq i64 %5, 0
  br i1 %.not, label %6, label %lean_dec.exit

6:                                                ; preds = %1
  %7 = load i32, ptr %0, align 4, !tbaa !4
  %8 = icmp sgt i32 %7, 1
  br i1 %8, label %9, label %11, !prof !9

9:                                                ; preds = %6
  %10 = add nsw i32 %7, -1
  store i32 %10, ptr %0, align 4, !tbaa !4
  br label %lean_dec.exit

11:                                               ; preds = %6
  %.not.i = icmp eq i32 %7, 0
  br i1 %.not.i, label %lean_dec.exit, label %12

12:                                               ; preds = %11
  tail call void @lean_dec_ref_cold(ptr noundef nonnull %0) #4
  br label %lean_dec.exit

lean_dec.exit:                                    ; preds = %12, %11, %9, %1
  %.not.i4 = icmp eq i32 %4, 127
  br i1 %.not.i4, label %l_Lake_Toml_isControlChar.exit, label %13

13:                                               ; preds = %lean_dec.exit
  %14 = icmp ugt i32 %4, 31
  br i1 %14, label %l_Lake_Toml_isControlChar.exit, label %15

15:                                               ; preds = %13
  %.not14.i.not = icmp eq i32 %4, 9
  %16 = select i1 %.not14.i.not, i64 1, i64 3
  br label %l_Lake_Toml_isControlChar.exit

l_Lake_Toml_isControlChar.exit:                   ; preds = %lean_dec.exit, %13, %15
  %.2.i = phi i64 [ %16, %15 ], [ 1, %13 ], [ 3, %lean_dec.exit ]
  %17 = inttoptr i64 %.2.i to ptr
  ret ptr %17
}